target datalayout = "e-m:e-p270:32:32-p271:32:32-p272:64:64-i64:64-i128:128-f80:128-n8:16:32:64-S128"
target triple = "x86_64-pc-linux-gnu"

; Function Attrs: nounwind uwtable
define i32 @ff_mpeg4_get_video_packet_prefix_length(i32 noundef %0, i32 noundef %1, i32 noundef %2) #2 {
  %4 = alloca i32, align 4
  %5 = alloca i32, align 4
  %6 = alloca i32, align 4
  %7 = alloca i32, align 4
  store i32 %0, ptr %5, align 4, !tbaa !4
  store i32 %1, ptr %6, align 4, !tbaa !4
  store i32 %2, ptr %7, align 4, !tbaa !4
  %8 = load i32, ptr %5, align 4, !tbaa !4
  switch i32 %8, label %38 [
    i32 1, label %9
    i32 2, label %10
    i32 4, label %10
    i32 3, label %13
  ]

9:                                                ; preds = %3
  store i32 16, ptr %4, align 4
  br label %39

10:                                               ; preds = %3, %3
  %11 = load i32, ptr %6, align 4, !tbaa !4
  %12 = add nsw i32 %11, 15
  store i32 %12, ptr %4, align 4
  br label %39

13:                                               ; preds = %3
  %14 = load i32, ptr %6, align 4, !tbaa !4
  %15 = load i32, ptr %7, align 4, !tbaa !4
  %16 = icmp sgt i32 %14, %15
  br i1 %16, label %17, label %19

17:                                               ; preds = %13
  %18 = load i32, ptr %6, align 4, !tbaa !4
  br label %21

19:                                               ; preds = %13
  %20 = load i32, ptr %7, align 4, !tbaa !4
  br label %21

21:                                               ; preds = %19, %17
  %22 = phi i32 [ %18, %17 ], [ %20, %19 ]
  %23 = icmp sgt i32 %22, 2
  br i1 %23, label %24, label %34

24:                                               ; preds = %21
  %25 = load i32, ptr %6, align 4, !tbaa !4
  %26 = load i32, ptr %7, align 4, !tbaa !4
  %27 = icmp sgt i32 %25, %26
  br i1 %27, label %28, label %30

28:                                               ; preds = %24
  %29 = load i32, ptr %6, align 4, !tbaa !4
  br label %32

30:                                               ; preds = %24
  %31 = load i32, ptr %7, align 4, !tbaa !4
  br label %32

32:                                               ; preds = %30, %28
  %33 = phi i32 [ %29, %28 ], [ %31, %30 ]
  br label %35

34:                                               ; preds = %21
  br label %35

35:                                               ; preds = %34, %32
  %36 = phi i32 [ %33, %32 ], [ 2, %34 ]
  %37 = add nsw i32 %36, 15
  store i32 %37, ptr %4, align 4
  br label %39

38:                                               ; preds = %3
  store i32 -1, ptr %4, align 4
  br label %39

39:                                               ; preds = %38, %35, %10, %9
  %40 = load i32, ptr %4, align 4
  ret i32 %40
}