; Function Attrs: mustprogress nofree norecurse nosync nounwind willreturn memory(none) uwtable
define range(i32 -2147483633, -2147483648) i32 @ff_mpeg4_get_video_packet_prefix_length(i32 noundef %0, i32 noundef %1, i32 noundef %2) local_unnamed_addr #2 {
  switch i32 %0, label %9 [
    i32 1, label %10
    i32 2, label %4
    i32 4, label %4
    i32 3, label %6
  ]

4:                                                ; preds = %3, %3
  %5 = add nsw i32 %1, 15
  br label %10

6:                                                ; preds = %3
  %7 = tail call i32 @llvm.smax.i32(i32 %1, i32 %2)
  %8 = tail call i32 @llvm.smax.i32(i32 %7, i32 2)
  %spec.select = add nuw i32 %8, 15
  br label %10

9:                                                ; preds = %3
  br label %10

10:                                               ; preds = %3, %9, %6, %4
  %.0 = phi i32 [ -1, %9 ], [ %spec.select, %6 ], [ %5, %4 ], [ 16, %3 ]
  ret i32 %.0
}